target datalayout = "e-m:e-p270:32:32-p271:32:32-p272:64:64-i64:64-i128:128-f80:128-n8:16:32:64-S128"
target triple = "x86_64-pc-linux-gnu"

%struct.UCaseProps = type { ptr, ptr, ptr, ptr, %struct.UTrie2, [4 x i8] }
%struct.UTrie2 = type { ptr, ptr, ptr, i32, i32, i16, i16, i32, i32, i32, i32, ptr, i32, i8, i8, i16, ptr }
%"class.icu_77::FullCaseFoldingIterator" = type <{ ptr, i32, i32, i32, i32, i32, [4 x i8] }>

; Function Attrs: mustprogress nounwind uwtable
define void @_ZN6icu_7723FullCaseFoldingIteratorC2Ev(ptr noundef nonnull align 8 dereferenceable(28) %0) unnamed_addr #3 align 2 {
  %2 = alloca ptr, align 8
  store ptr %0, ptr %2, align 8, !tbaa !43
  %3 = load ptr, ptr %2, align 8
  %4 = getelementptr inbounds nuw %"class.icu_77::FullCaseFoldingIterator", ptr %3, i32 0, i32 0
  %5 = load ptr, ptr getelementptr inbounds nuw (%struct.UCaseProps, ptr @_ZL21ucase_props_singleton, i32 0, i32 3), align 8, !tbaa !39
  store ptr %5, ptr %4, align 8, !tbaa !45
  %6 = getelementptr inbounds nuw %"class.icu_77::FullCaseFoldingIterator", ptr %3, i32 0, i32 1
  %7 = getelementptr inbounds nuw %"class.icu_77::FullCaseFoldingIterator", ptr %3, i32 0, i32 0
  %8 = load ptr, ptr %7, align 8, !tbaa !45
  %9 = getelementptr inbounds nuw i16, ptr %8, i64 0
  %10 = load i16, ptr %9, align 2, !tbaa !34
  %11 = zext i16 %10 to i32
  store i32 %11, ptr %6, align 8, !tbaa !47
  %12 = getelementptr inbounds nuw %"class.icu_77::FullCaseFoldingIterator", ptr %3, i32 0, i32 2
  %13 = getelementptr inbounds nuw %"class.icu_77::FullCaseFoldingIterator", ptr %3, i32 0, i32 0
  %14 = load ptr, ptr %13, align 8, !tbaa !45
  %15 = getelementptr inbounds nuw i16, ptr %14, i64 1
  %16 = load i16, ptr %15, align 2, !tbaa !34
  %17 = zext i16 %16 to i32
  store i32 %17, ptr %12, align 4, !tbaa !48
  %18 = getelementptr inbounds nuw %"class.icu_77::FullCaseFoldingIterator", ptr %3, i32 0, i32 3
  %19 = getelementptr inbounds nuw %"class.icu_77::FullCaseFoldingIterator", ptr %3, i32 0, i32 0
  %20 = load ptr, ptr %19, align 8, !tbaa !45
  %21 = getelementptr inbounds nuw i16, ptr %20, i64 2
  %22 = load i16, ptr %21, align 2, !tbaa !34
  %23 = zext i16 %22 to i32
  store i32 %23, ptr %18, align 8, !tbaa !49
  %24 = getelementptr inbounds nuw %"class.icu_77::FullCaseFoldingIterator", ptr %3, i32 0, i32 4
  store i32 0, ptr %24, align 4, !tbaa !50
  %25 = getelementptr inbounds nuw %"class.icu_77::FullCaseFoldingIterator", ptr %3, i32 0, i32 5
  %26 = getelementptr inbounds nuw %"class.icu_77::FullCaseFoldingIterator", ptr %3, i32 0, i32 3
  %27 = load i32, ptr %26, align 8, !tbaa !49
  store i32 %27, ptr %25, align 8, !tbaa !51
  %28 = getelementptr inbounds nuw %"class.icu_77::FullCaseFoldingIterator", ptr %3, i32 0, i32 2
  %29 = load i32, ptr %28, align 4, !tbaa !48
  %30 = getelementptr inbounds nuw %"class.icu_77::FullCaseFoldingIterator", ptr %3, i32 0, i32 0
  %31 = load ptr, ptr %30, align 8, !tbaa !45
  %32 = sext i32 %29 to i64
  %33 = getelementptr inbounds i16, ptr %31, i64 %32
  store ptr %33, ptr %30, align 8, !tbaa !45
  ret void
}