; Function Attrs: mustprogress nofree norecurse nosync nounwind willreturn memory(argmem: write) uwtable
define void @_ZN6icu_7723FullCaseFoldingIteratorC2Ev(ptr noundef nonnull writeonly align 8 captures(none) dereferenceable(28) initializes((0, 28)) %0) unnamed_addr #2 align 2 {
  %2 = getelementptr inbounds nuw i8, ptr %0, i64 8
  store i32 73, ptr %2, align 8, !tbaa !28
  %3 = getelementptr inbounds nuw i8, ptr %0, i64 12
  store i32 5, ptr %3, align 4, !tbaa !31
  %4 = getelementptr inbounds nuw i8, ptr %0, i64 16
  store i32 3, ptr %4, align 8, !tbaa !32
  %5 = getelementptr inbounds nuw i8, ptr %0, i64 20
  store i32 0, ptr %5, align 4, !tbaa !33
  %6 = getelementptr inbounds nuw i8, ptr %0, i64 24
  store i32 3, ptr %6, align 8, !tbaa !34
  store ptr getelementptr inbounds nuw (i8, ptr @_ZL18ucase_props_unfold, i64 10), ptr %0, align 8, !tbaa !35
  ret void
}